target datalayout = "e-m:e-p270:32:32-p271:32:32-p272:64:64-i64:64-i128:128-f80:128-n8:16:32:64-S128"
target triple = "x86_64-pc-linux-gnu"

%struct.expert_field = type { i32, i32 }
%struct._packet_info = type { ptr, ptr, i32, i32, %struct.nstime_t, %struct.nstime_t, %struct.nstime_t, i8, ptr, ptr, ptr, ptr, %struct._address, %struct._address, %struct._address, %struct._address, %struct._address, %struct._address, i32, ptr, i8, [3 x i8], %struct.anon, i32, i32, i32, i32, ptr, i8, ptr, ptr, i16, i16, i32, i32, i16, i32, i32, ptr, ptr, ptr, i8, i8, i16, i16, i16, i32, i16, i16, ptr, ptr, ptr, ptr, ptr, i32, i32 }
%struct.nstime_t = type { i64, i32 }
%struct._address = type { i32, i32, ptr, ptr }
%struct.anon = type { i8, [3 x i8] }

@hf_nas_eps_spare_bits = internal global i32 0, align 4
@ei_nas_eps_extraneous_data = internal global %struct.expert_field zeroinitializer, align 4
@hf_nas_eps_emm_detach_req_DL = internal global i32 0, align 4
@hf_nas_eps_emm_detach_type_DL = internal global i32 0, align 4
@.str.956 = private unnamed_addr constant [6 x i8] c" (%s)\00", align 1
@.str.957 = private unnamed_addr constant [8 x i8] c"Unknown\00", align 1
@.str.997 = private unnamed_addr constant [75 x i8] c" - Forbidden TAI(s) for the list of \22forbidden tracking areas for roaming\22\00", align 1
@.str.998 = private unnamed_addr constant [97 x i8] c" - Forbidden TAI(s) for the list of \22forbidden tracking areas for regional provision of service\22\00", align 1
@.str.1000 = private unnamed_addr constant [27 x i8] c" - Lower bound timer value\00", align 1

; Function Attrs: null_pointer_is_valid sspstrong uwtable
define internal void @nas_emm_detach_req_DL(ptr noundef %0, ptr noundef %1, ptr noundef %2, i32 noundef %3, i32 noundef %4) #1 {
  %6 = alloca ptr, align 8
  %7 = alloca ptr, align 8
  %8 = alloca ptr, align 8
  %9 = alloca i32, align 4
  %10 = alloca i32, align 4
  %11 = alloca i32, align 4
  %12 = alloca i32, align 4
  %13 = alloca i32, align 4
  %14 = alloca i32, align 4
  %15 = alloca i64, align 8
  %16 = alloca i32, align 4
  store ptr %0, ptr %6, align 8
  store ptr %1, ptr %7, align 8
  store ptr %2, ptr %8, align 8
  store i32 %3, ptr %9, align 4
  store i32 %4, ptr %10, align 4
  call void @llvm.lifetime.start.p0(i64 4, ptr %11) #10
  call void @llvm.lifetime.start.p0(i64 4, ptr %12) #10
  call void @llvm.lifetime.start.p0(i64 4, ptr %13) #10
  call void @llvm.lifetime.start.p0(i64 4, ptr %14) #10
  call void @llvm.lifetime.start.p0(i64 8, ptr %15) #10
  %17 = load i32, ptr %9, align 4
  store i32 %17, ptr %11, align 4
  %18 = load i32, ptr %10, align 4
  store i32 %18, ptr %14, align 4
  %19 = load ptr, ptr %7, align 8
  %20 = load i32, ptr @hf_nas_eps_emm_detach_req_DL, align 4
  %21 = load ptr, ptr %6, align 8
  %22 = load i32, ptr %11, align 4
  %23 = load i32, ptr %10, align 4
  %24 = call ptr @proto_tree_add_item(ptr noundef %19, i32 noundef %20, ptr noundef %21, i32 noundef %22, i32 noundef %23, i32 noundef 0)
  %25 = load i32, ptr %11, align 4
  %26 = shl i32 %25, 3
  store i32 %26, ptr %12, align 4
  %27 = load ptr, ptr %7, align 8
  %28 = load i32, ptr @hf_nas_eps_spare_bits, align 4
  %29 = load ptr, ptr %6, align 8
  %30 = load i32, ptr %12, align 4
  %31 = call ptr @proto_tree_add_bits_item(ptr noundef %27, i32 noundef %28, ptr noundef %29, i32 noundef %30, i32 noundef 4, i32 noundef 0)
  %32 = load i32, ptr %12, align 4
  %33 = add i32 %32, 4
  store i32 %33, ptr %12, align 4
  %34 = load ptr, ptr %7, align 8
  %35 = load i32, ptr @hf_nas_eps_spare_bits, align 4
  %36 = load ptr, ptr %6, align 8
  %37 = load i32, ptr %12, align 4
  %38 = call ptr @proto_tree_add_bits_item(ptr noundef %34, i32 noundef %35, ptr noundef %36, i32 noundef %37, i32 noundef 1, i32 noundef 0)
  %39 = load i32, ptr %12, align 4
  %40 = add i32 %39, 1
  store i32 %40, ptr %12, align 4
  %41 = load ptr, ptr %7, align 8
  %42 = load i32, ptr @hf_nas_eps_emm_detach_type_DL, align 4
  %43 = load ptr, ptr %6, align 8
  %44 = load i32, ptr %12, align 4
  %45 = call ptr @proto_tree_add_bits_ret_val(ptr noundef %41, i32 noundef %42, ptr noundef %43, i32 noundef %44, i32 noundef 3, ptr noundef %15, i32 noundef 0)
  %46 = load ptr, ptr %8, align 8
  %47 = getelementptr inbounds nuw %struct._packet_info, ptr %46, i32 0, i32 1
  %48 = load ptr, ptr %47, align 8
  %49 = load i64, ptr %15, align 8
  %50 = trunc i64 %49 to i32
  %51 = call ptr @val_to_str_const(i32 noundef %50, ptr noundef @nas_eps_emm_type_of_detach_DL_vals, ptr noundef @.str.957)
  call void (ptr, i32, ptr, ...) @col_append_fstr(ptr noundef %48, i32 noundef 25, ptr noundef @.str.956, ptr noundef %51)
  %52 = load i32, ptr %14, align 4
  %53 = add i32 %52, -1
  store i32 %53, ptr %14, align 4
  %54 = load i32, ptr %11, align 4
  %55 = add i32 %54, 1
  store i32 %55, ptr %11, align 4
  %56 = load i32, ptr %14, align 4
  %57 = icmp sle i32 %56, 0
  br i1 %57, label %58, label %59

58:                                               ; preds = %5
  store i32 1, ptr %16, align 4
  br label %150

59:                                               ; preds = %5
  %60 = load ptr, ptr %6, align 8
  %61 = load ptr, ptr %7, align 8
  %62 = load ptr, ptr %8, align 8
  %63 = load i32, ptr %11, align 4
  %64 = call zeroext i16 @elem_tv(ptr noundef %60, ptr noundef %61, ptr noundef %62, i8 noundef zeroext 83, i32 noundef 10, i32 noundef 11, i32 noundef %63, ptr noundef null)
  %65 = zext i16 %64 to i32
  store i32 %65, ptr %13, align 4
  %66 = icmp ugt i32 %65, 0
  br i1 %66, label %67, label %74

67:                                               ; preds = %59
  %68 = load i32, ptr %13, align 4
  %69 = load i32, ptr %11, align 4
  %70 = add i32 %69, %68
  store i32 %70, ptr %11, align 4
  %71 = load i32, ptr %13, align 4
  %72 = load i32, ptr %14, align 4
  %73 = sub i32 %72, %71
  store i32 %73, ptr %14, align 4
  br label %74

74:                                               ; preds = %67, %59
  %75 = load i32, ptr %14, align 4
  %76 = icmp sle i32 %75, 0
  br i1 %76, label %77, label %78

77:                                               ; preds = %74
  store i32 1, ptr %16, align 4
  br label %150

78:                                               ; preds = %74
  %79 = load ptr, ptr %6, align 8
  %80 = load ptr, ptr %7, align 8
  %81 = load ptr, ptr %8, align 8
  %82 = load i32, ptr %11, align 4
  %83 = load i32, ptr %14, align 4
  %84 = call zeroext i16 @elem_tlv(ptr noundef %79, ptr noundef %80, ptr noundef %81, i8 noundef zeroext 28, i32 noundef 5, i32 noundef 71, i32 noundef %82, i32 noundef %83, ptr noundef @.str.1000)
  %85 = zext i16 %84 to i32
  store i32 %85, ptr %13, align 4
  %86 = icmp ugt i32 %85, 0
  br i1 %86, label %87, label %94

87:                                               ; preds = %78
  %88 = load i32, ptr %13, align 4
  %89 = load i32, ptr %11, align 4
  %90 = add i32 %89, %88
  store i32 %90, ptr %11, align 4
  %91 = load i32, ptr %13, align 4
  %92 = load i32, ptr %14, align 4
  %93 = sub i32 %92, %91
  store i32 %93, ptr %14, align 4
  br label %94

94:                                               ; preds = %87, %78
  %95 = load i32, ptr %14, align 4
  %96 = icmp sle i32 %95, 0
  br i1 %96, label %97, label %98

97:                                               ; preds = %94
  store i32 1, ptr %16, align 4
  br label %150

98:                                               ; preds = %94
  %99 = load ptr, ptr %6, align 8
  %100 = load ptr, ptr %7, align 8
  %101 = load ptr, ptr %8, align 8
  %102 = load i32, ptr %11, align 4
  %103 = load i32, ptr %14, align 4
  %104 = call zeroext i16 @elem_tlv(ptr noundef %99, ptr noundef %100, ptr noundef %101, i8 noundef zeroext 29, i32 noundef 10, i32 noundef 41, i32 noundef %102, i32 noundef %103, ptr noundef @.str.997)
  %105 = zext i16 %104 to i32
  store i32 %105, ptr %13, align 4
  %106 = icmp ugt i32 %105, 0
  br i1 %106, label %107, label %114

107:                                              ; preds = %98
  %108 = load i32, ptr %13, align 4
  %109 = load i32, ptr %11, align 4
  %110 = add i32 %109, %108
  store i32 %110, ptr %11, align 4
  %111 = load i32, ptr %13, align 4
  %112 = load i32, ptr %14, align 4
  %113 = sub i32 %112, %111
  store i32 %113, ptr %14, align 4
  br label %114

114:                                              ; preds = %107, %98
  %115 = load i32, ptr %14, align 4
  %116 = icmp sle i32 %115, 0
  br i1 %116, label %117, label %118

117:                                              ; preds = %114
  store i32 1, ptr %16, align 4
  br label %150

118:                                              ; preds = %114
  %119 = load ptr, ptr %6, align 8
  %120 = load ptr, ptr %7, align 8
  %121 = load ptr, ptr %8, align 8
  %122 = load i32, ptr %11, align 4
  %123 = load i32, ptr %14, align 4
  %124 = call zeroext i16 @elem_tlv(ptr noundef %119, ptr noundef %120, ptr noundef %121, i8 noundef zeroext 30, i32 noundef 10, i32 noundef 41, i32 noundef %122, i32 noundef %123, ptr noundef @.str.998)
  %125 = zext i16 %124 to i32
  store i32 %125, ptr %13, align 4
  %126 = icmp ugt i32 %125, 0
  br i1 %126, label %127, label %134

127:                                              ; preds = %118
  %128 = load i32, ptr %13, align 4
  %129 = load i32, ptr %11, align 4
  %130 = add i32 %129, %128
  store i32 %130, ptr %11, align 4
  %131 = load i32, ptr %13, align 4
  %132 = load i32, ptr %14, align 4
  %133 = sub i32 %132, %131
  store i32 %133, ptr %14, align 4
  br label %134

134:                                              ; preds = %127, %118
  %135 = load i32, ptr %14, align 4
  %136 = icmp ugt i32 %135, 0
  br i1 %136, label %137, label %149

137:                                              ; preds = %134
  %138 = load ptr, ptr %7, align 8
  %139 = load ptr, ptr %8, align 8
  %140 = load ptr, ptr %6, align 8
  %141 = load i32, ptr %11, align 4
  %142 = load i32, ptr %14, align 4
  %143 = sub i32 %142, 0
  %144 = call ptr @proto_tree_add_expert(ptr noundef %138, ptr noundef %139, ptr noundef @ei_nas_eps_extraneous_data, ptr noundef %140, i32 noundef %141, i32 noundef %143)
  %145 = load i32, ptr %14, align 4
  %146 = sub i32 %145, 0
  %147 = load i32, ptr %11, align 4
  %148 = add i32 %147, %146
  store i32 %148, ptr %11, align 4
  br label %149

149:                                              ; preds = %137, %134
  store i32 0, ptr %16, align 4
  br label %150

150:                                              ; preds = %149, %117, %97, %77, %58
  call void @llvm.lifetime.end.p0(i64 8, ptr %15) #10
  call void @llvm.lifetime.end.p0(i64 4, ptr %14) #10
  call void @llvm.lifetime.end.p0(i64 4, ptr %13) #10
  call void @llvm.lifetime.end.p0(i64 4, ptr %12) #10
  call void @llvm.lifetime.end.p0(i64 4, ptr %11) #10
  %151 = load i32, ptr %16, align 4
  switch i32 %151, label %153 [
    i32 0, label %152
    i32 1, label %152
  ]

152:                                              ; preds = %150, %150
  ret void

153:                                              ; preds = %150
  unreachable
}