; Function Attrs: null_pointer_is_valid sspstrong uwtable
define internal fastcc void @nas_emm_detach_req_DL(ptr noundef %0, ptr noundef %1, ptr noundef %2, i32 noundef %3, i32 noundef %4) unnamed_addr #1 {
  %6 = alloca i64, align 8
  call void @llvm.lifetime.start.p0(i64 8, ptr nonnull %6) #10
  %7 = load i32, ptr @hf_nas_eps_emm_detach_req_DL, align 4
  %8 = tail call ptr @proto_tree_add_item(ptr noundef %1, i32 noundef %7, ptr noundef %0, i32 noundef %3, i32 noundef %4, i32 noundef 0)
  %9 = shl i32 %3, 3
  %10 = load i32, ptr @hf_nas_eps_spare_bits, align 4
  %11 = tail call ptr @proto_tree_add_bits_item(ptr noundef %1, i32 noundef %10, ptr noundef %0, i32 noundef %9, i32 noundef 4, i32 noundef 0)
  %12 = or disjoint i32 %9, 4
  %13 = load i32, ptr @hf_nas_eps_spare_bits, align 4
  %14 = tail call ptr @proto_tree_add_bits_item(ptr noundef %1, i32 noundef %13, ptr noundef %0, i32 noundef %12, i32 noundef 1, i32 noundef 0)
  %15 = or disjoint i32 %9, 5
  %16 = load i32, ptr @hf_nas_eps_emm_detach_type_DL, align 4
  %17 = call ptr @proto_tree_add_bits_ret_val(ptr noundef %1, i32 noundef %16, ptr noundef %0, i32 noundef %15, i32 noundef 3, ptr noundef nonnull %6, i32 noundef 0)
  %18 = getelementptr inbounds nuw i8, ptr %2, i64 8
  %19 = load ptr, ptr %18, align 8
  %20 = load i64, ptr %6, align 8
  %21 = trunc i64 %20 to i32
  %22 = call ptr @val_to_str_const(i32 noundef %21, ptr noundef nonnull @nas_eps_emm_type_of_detach_DL_vals, ptr noundef nonnull @.str.957)
  call void (ptr, i32, ptr, ...) @col_append_fstr(ptr noundef %19, i32 noundef 25, ptr noundef nonnull @.str.956, ptr noundef %22)
  %23 = add i32 %4, -1
  %24 = icmp slt i32 %23, 1
  br i1 %24, label %51, label %25

25:                                               ; preds = %5
  %26 = add i32 %3, 1
  %27 = call zeroext i16 @elem_tv(ptr noundef %0, ptr noundef %1, ptr noundef %2, i8 noundef zeroext 83, i32 noundef 10, i32 noundef 11, i32 noundef %26, ptr noundef null)
  %28 = zext i16 %27 to i32
  %29 = sub nsw i32 %23, %28
  %30 = icmp slt i32 %29, 1
  br i1 %30, label %51, label %31

31:                                               ; preds = %25
  %32 = add i32 %26, %28
  %33 = call zeroext i16 @elem_tlv(ptr noundef %0, ptr noundef %1, ptr noundef %2, i8 noundef zeroext 28, i32 noundef 5, i32 noundef 71, i32 noundef %32, i32 noundef %29, ptr noundef nonnull @.str.1000)
  %34 = zext i16 %33 to i32
  %35 = sub nsw i32 %29, %34
  %36 = icmp slt i32 %35, 1
  br i1 %36, label %51, label %37

37:                                               ; preds = %31
  %38 = add i32 %32, %34
  %39 = call zeroext i16 @elem_tlv(ptr noundef %0, ptr noundef %1, ptr noundef %2, i8 noundef zeroext 29, i32 noundef 10, i32 noundef 41, i32 noundef %38, i32 noundef %35, ptr noundef nonnull @.str.997)
  %40 = zext i16 %39 to i32
  %41 = sub nsw i32 %35, %40
  %42 = icmp slt i32 %41, 1
  br i1 %42, label %51, label %43

43:                                               ; preds = %37
  %44 = add i32 %38, %40
  %45 = call zeroext i16 @elem_tlv(ptr noundef %0, ptr noundef %1, ptr noundef %2, i8 noundef zeroext 30, i32 noundef 10, i32 noundef 41, i32 noundef %44, i32 noundef %41, ptr noundef nonnull @.str.998)
  %46 = zext i16 %45 to i32
  %.not79 = icmp eq i32 %41, %46
  br i1 %.not79, label %51, label %47

47:                                               ; preds = %43
  %48 = sub nsw i32 %41, %46
  %49 = add i32 %44, %46
  %50 = call ptr @proto_tree_add_expert(ptr noundef %1, ptr noundef %2, ptr noundef nonnull @ei_nas_eps_extraneous_data, ptr noundef %0, i32 noundef %49, i32 noundef %48)
  br label %51

51:                                               ; preds = %43, %47, %37, %31, %25, %5
  call void @llvm.lifetime.end.p0(i64 8, ptr nonnull %6) #10
  ret void
}